target datalayout = "e-m:e-p270:32:32-p271:32:32-p272:64:64-i64:64-i128:128-f80:128-n8:16:32:64-S128"
target triple = "x86_64-pc-linux-gnu"

; Function Attrs: nounwind uwtable
define internal i32 @os_execute(ptr noundef %0) #0 {
  %2 = alloca i32, align 4
  %3 = alloca ptr, align 8
  %4 = alloca ptr, align 8
  %5 = alloca i32, align 4
  %6 = alloca i32, align 4
  store ptr %0, ptr %3, align 8, !tbaa !4
  call void @llvm.lifetime.start.p0(i64 8, ptr %4) #9
  %7 = load ptr, ptr %3, align 8, !tbaa !4
  %8 = call ptr @luaL_optlstring(ptr noundef %7, i32 noundef 1, ptr noundef null, ptr noundef null)
  store ptr %8, ptr %4, align 8, !tbaa !9
  call void @llvm.lifetime.start.p0(i64 4, ptr %5) #9
  %9 = call ptr @__errno_location() #11
  store i32 0, ptr %9, align 4, !tbaa !20
  %10 = load ptr, ptr %4, align 8, !tbaa !9
  %11 = call i32 @system(ptr noundef %10)
  store i32 %11, ptr %5, align 4, !tbaa !20
  %12 = load ptr, ptr %4, align 8, !tbaa !9
  %13 = icmp ne ptr %12, null
  br i1 %13, label %14, label %18

14:                                               ; preds = %1
  %15 = load ptr, ptr %3, align 8, !tbaa !4
  %16 = load i32, ptr %5, align 4, !tbaa !20
  %17 = call i32 @luaL_execresult(ptr noundef %15, i32 noundef %16)
  store i32 %17, ptr %2, align 4
  store i32 1, ptr %6, align 4
  br label %21

18:                                               ; preds = %1
  %19 = load ptr, ptr %3, align 8, !tbaa !4
  %20 = load i32, ptr %5, align 4, !tbaa !20
  call void @lua_pushboolean(ptr noundef %19, i32 noundef %20)
  store i32 1, ptr %2, align 4
  store i32 1, ptr %6, align 4
  br label %21

21:                                               ; preds = %18, %14
  call void @llvm.lifetime.end.p0(i64 4, ptr %5) #9
  call void @llvm.lifetime.end.p0(i64 8, ptr %4) #9
  %22 = load i32, ptr %2, align 4
  ret i32 %22
}