; Function Attrs: nounwind uwtable
define internal i32 @os_execute(ptr noundef %0) #0 {
  %2 = tail call ptr @luaL_optlstring(ptr noundef %0, i32 noundef 1, ptr noundef null, ptr noundef null) #12
  %3 = tail call ptr @__errno_location() #13
  store i32 0, ptr %3, align 4, !tbaa !16
  %4 = tail call i32 @system(ptr noundef %2) #12
  %.not = icmp eq ptr %2, null
  br i1 %.not, label %7, label %5

5:                                                ; preds = %1
  %6 = tail call i32 @luaL_execresult(ptr noundef %0, i32 noundef %4) #12
  br label %8

7:                                                ; preds = %1
  tail call void @lua_pushboolean(ptr noundef %0, i32 noundef %4) #12
  br label %8

8:                                                ; preds = %7, %5
  %.0 = phi i32 [ %6, %5 ], [ 1, %7 ]
  ret i32 %.0
}